; Function Attrs: mustprogress nounwind uwtable
define range(i32 0, 2) i32 @acdXX_evaluate(ptr noundef %0, i32 noundef %1, i32 noundef %2) local_unnamed_addr #3 {
  %4 = alloca %"class.acd::acd66_impl", align 8
  %5 = alloca %"class.acd::acdXX_impl", align 8
  %6 = icmp eq i32 %1, 6
  br i1 %6, label %7, label %16

7:                                                ; preds = %3
  call void @llvm.lifetime.start.p0(i64 624, ptr nonnull %4) #16
  store i32 -1, ptr %4, align 8, !tbaa !96
  %8 = getelementptr inbounds nuw i8, ptr %4, i64 4
  store i32 -1, ptr %8, align 4, !tbaa !98
  %9 = getelementptr inbounds nuw i8, ptr %4, i64 8
  store i32 -1, ptr %9, align 8, !tbaa !99
  %10 = getelementptr inbounds nuw i8, ptr %4, i64 12
  %11 = getelementptr inbounds nuw i8, ptr %4, i64 568
  call void @llvm.memset.p0.i64(ptr noundef nonnull align 4 dereferenceable(516) %10, i8 0, i64 516, i1 false)
  store i32 %2, ptr %11, align 8, !tbaa !100
  %12 = getelementptr inbounds nuw i8, ptr %4, i64 572
  store i8 1, ptr %12, align 4, !tbaa !101
  %13 = getelementptr inbounds nuw i8, ptr %4, i64 573
  store i8 0, ptr %13, align 1, !tbaa !102
  br label %.lr.ph.i.i.i

.lr.ph.i.i.i:                                     ; preds = %.lr.ph.i.i.i, %7
  %.08.i.i.i = phi i32 [ %14, %.lr.ph.i.i.i ], [ 0, %7 ]
  %.057.i.idx.i.i = phi i64 [ %.057.i.add.i.i, %.lr.ph.i.i.i ], [ 576, %7 ]
  %.057.i.ptr.i.i = getelementptr inbounds nuw i8, ptr %4, i64 %.057.i.idx.i.i
  store i32 %.08.i.i.i, ptr %.057.i.ptr.i.i, align 4, !tbaa !41
  %14 = add nuw nsw i32 %.08.i.i.i, 1
  %.057.i.add.i.i = add nuw nsw i64 %.057.i.idx.i.i, 4
  %.not.i.i.i = icmp eq i64 %.057.i.add.i.i, 620
  br i1 %.not.i.i.i, label %_Z14acd66_evaluatePmj.exit, label %.lr.ph.i.i.i, !llvm.loop !44

_Z14acd66_evaluatePmj.exit:                       ; preds = %.lr.ph.i.i.i
  %15 = call noundef zeroext i1 @_ZN3acd10acd66_impl3runEPm(ptr noundef nonnull align 8 dereferenceable(620) %4, ptr noundef %0)
  call void @llvm.lifetime.end.p0(i64 624, ptr nonnull %4) #16
  br label %25

16:                                               ; preds = %3
  %17 = add i32 %1, -2
  call void @llvm.lifetime.start.p0(i64 632, ptr nonnull %5) #16
  store i32 -1, ptr %5, align 8, !tbaa !76
  %18 = getelementptr inbounds nuw i8, ptr %5, i64 4
  store i32 -1, ptr %18, align 4, !tbaa !79
  %19 = getelementptr inbounds nuw i8, ptr %5, i64 8
  store i32 -1, ptr %19, align 8, !tbaa !80
  %20 = getelementptr inbounds nuw i8, ptr %5, i64 12
  %21 = getelementptr inbounds nuw i8, ptr %5, i64 568
  call void @llvm.memset.p0.i64(ptr noundef nonnull align 4 dereferenceable(516) %20, i8 0, i64 516, i1 false)
  store i32 %2, ptr %21, align 8, !tbaa !81
  %22 = getelementptr inbounds nuw i8, ptr %5, i64 572
  store i32 %1, ptr %22, align 4, !tbaa !41
  %.sroa.5.0..sroa_idx = getelementptr inbounds nuw i8, ptr %5, i64 576
  store i32 %17, ptr %.sroa.5.0..sroa_idx, align 8, !tbaa !41
  %.sroa.7.0..sroa_idx = getelementptr inbounds nuw i8, ptr %5, i64 580
  store i32 0, ptr %.sroa.7.0..sroa_idx, align 4, !tbaa !41
  %.sroa.8.0..sroa_idx = getelementptr inbounds nuw i8, ptr %5, i64 584
  store i8 0, ptr %.sroa.8.0..sroa_idx, align 8, !tbaa !42
  br label %.lr.ph.i.i

.lr.ph.i.i:                                       ; preds = %.lr.ph.i.i, %16
  %.08.i.i = phi i32 [ %23, %.lr.ph.i.i ], [ 0, %16 ]
  %.057.i.idx.i = phi i64 [ %.057.i.add.i, %.lr.ph.i.i ], [ 588, %16 ]
  %.057.i.ptr.i = getelementptr inbounds nuw i8, ptr %5, i64 %.057.i.idx.i
  store i32 %.08.i.i, ptr %.057.i.ptr.i, align 4, !tbaa !41
  %23 = add nuw nsw i32 %.08.i.i, 1
  %.057.i.add.i = add nuw nsw i64 %.057.i.idx.i, 4
  %.not.i.i = icmp eq i64 %.057.i.add.i, 632
  br i1 %.not.i.i, label %_ZN3acd10acdXX_implC2EjRKNS_12acdXX_paramsE.exit, label %.lr.ph.i.i, !llvm.loop !44

_ZN3acd10acdXX_implC2EjRKNS_12acdXX_paramsE.exit: ; preds = %.lr.ph.i.i
  %24 = call noundef zeroext i1 @_ZN3acd10acdXX_impl3runEPm(ptr noundef nonnull align 8 dereferenceable(632) %5, ptr noundef %0)
  call void @llvm.lifetime.end.p0(i64 632, ptr nonnull %5) #16
  br label %25

25:                                               ; preds = %_ZN3acd10acdXX_implC2EjRKNS_12acdXX_paramsE.exit, %_Z14acd66_evaluatePmj.exit
  %.0.in = phi i1 [ %15, %_Z14acd66_evaluatePmj.exit ], [ %24, %_ZN3acd10acdXX_implC2EjRKNS_12acdXX_paramsE.exit ]
  %.0 = zext i1 %.0.in to i32
  ret i32 %.0
}